; Function Attrs: nounwind uwtable
define void @Gia_ManCollectDfs_rec(ptr noundef %0, i32 noundef %1, ptr noundef %2) local_unnamed_addr #1 {
  %4 = getelementptr i8, ptr %0, i64 176
  %.val20 = load i32, ptr %4, align 8
  %5 = getelementptr i8, ptr %0, i64 616
  %.val21 = load ptr, ptr %5, align 8
  %6 = sext i32 %1 to i64
  %7 = getelementptr inbounds i32, ptr %.val21, i64 %6
  %8 = load i32, ptr %7, align 4
  %.not = icmp eq i32 %8, %.val20
  br i1 %.not, label %54, label %9

9:                                                ; preds = %3
  store i32 %.val20, ptr %7, align 4
  %10 = getelementptr i8, ptr %0, i64 32
  %.val = load ptr, ptr %10, align 8
  %11 = getelementptr inbounds %struct.Gia_Obj_t_, ptr %.val, i64 %6
  %.val17 = load i64, ptr %11, align 4
  %12 = and i64 %.val17, 2147483648
  %.not.i = icmp ne i64 %12, 0
  %13 = and i64 %.val17, 536870911
  %14 = icmp eq i64 %13, 536870911
  %narrow.i.not = or i1 %.not.i, %14
  br i1 %narrow.i.not, label %54, label %15

15:                                               ; preds = %9
  %16 = trunc i64 %.val17 to i32
  %17 = and i32 %16, 536870911
  %18 = sub nsw i32 %1, %17
  tail call void @Gia_ManCollectDfs_rec(ptr noundef nonnull %0, i32 noundef %18, ptr noundef %2)
  %.val19 = load i64, ptr %11, align 4
  %19 = lshr i64 %.val19, 32
  %20 = trunc nuw i64 %19 to i32
  %21 = and i32 %20, 536870911
  %22 = sub nsw i32 %1, %21
  tail call void @Gia_ManCollectDfs_rec(ptr noundef nonnull %0, i32 noundef %22, ptr noundef %2)
  %23 = getelementptr inbounds nuw i8, ptr %2, i64 4
  %24 = load i32, ptr %23, align 4
  %25 = load i32, ptr %2, align 8
  %26 = icmp eq i32 %24, %25
  br i1 %26, label %27, label %.Vec_IntGrow.exit10_crit_edge.i

.Vec_IntGrow.exit10_crit_edge.i:                  ; preds = %15
  %.phi.trans.insert.i = getelementptr inbounds nuw i8, ptr %2, i64 8
  %.pre.i = load ptr, ptr %.phi.trans.insert.i, align 8
  br label %Vec_IntPush.exit

27:                                               ; preds = %15
  %28 = icmp slt i32 %24, 16
  br i1 %28, label %29, label %37

29:                                               ; preds = %27
  %30 = getelementptr inbounds nuw i8, ptr %2, i64 8
  %31 = load ptr, ptr %30, align 8
  %.not9.i.i = icmp eq ptr %31, null
  br i1 %.not9.i.i, label %34, label %32

32:                                               ; preds = %29
  %33 = tail call dereferenceable_or_null(64) ptr @realloc(ptr noundef nonnull %31, i64 noundef 64) #28
  br label %Vec_IntGrow.exit.i

34:                                               ; preds = %29
  %35 = tail call noalias dereferenceable_or_null(64) ptr @malloc(i64 noundef 64) #27
  br label %Vec_IntGrow.exit.i

Vec_IntGrow.exit.i:                               ; preds = %34, %32
  %36 = phi ptr [ %33, %32 ], [ %35, %34 ]
  store ptr %36, ptr %30, align 8
  store i32 16, ptr %2, align 8
  br label %Vec_IntPush.exit

37:                                               ; preds = %27
  %38 = shl nuw nsw i32 %24, 1
  %39 = getelementptr inbounds nuw i8, ptr %2, i64 8
  %40 = load ptr, ptr %39, align 8
  %.not9.i9.i = icmp eq ptr %40, null
  %41 = zext nneg i32 %38 to i64
  %42 = shl nuw nsw i64 %41, 2
  br i1 %.not9.i9.i, label %45, label %43

43:                                               ; preds = %37
  %44 = tail call ptr @realloc(ptr noundef nonnull %40, i64 noundef %42) #28
  br label %47

45:                                               ; preds = %37
  %46 = tail call noalias ptr @malloc(i64 noundef %42) #27
  br label %47

47:                                               ; preds = %45, %43
  %48 = phi ptr [ %44, %43 ], [ %46, %45 ]
  store ptr %48, ptr %39, align 8
  store i32 %38, ptr %2, align 8
  br label %Vec_IntPush.exit

Vec_IntPush.exit:                                 ; preds = %.Vec_IntGrow.exit10_crit_edge.i, %Vec_IntGrow.exit.i, %47
  %49 = phi ptr [ %.pre.i, %.Vec_IntGrow.exit10_crit_edge.i ], [ %48, %47 ], [ %36, %Vec_IntGrow.exit.i ]
  %50 = load i32, ptr %23, align 4
  %51 = add nsw i32 %50, 1
  store i32 %51, ptr %23, align 4
  %52 = sext i32 %50 to i64
  %53 = getelementptr inbounds i32, ptr %49, i64 %52
  store i32 %1, ptr %53, align 4
  br label %54

54:                                               ; preds = %9, %3, %Vec_IntPush.exit
  ret void
}